target datalayout = "e-m:e-p270:32:32-p271:32:32-p272:64:64-i64:64-i128:128-f80:128-n8:16:32:64-S128"
target triple = "x86_64-pc-linux-gnu"

%struct.aiString = type { i32, [1024 x i8] }
%struct.aiMaterial = type { ptr, i32, i32 }
%struct.aiMaterialProperty = type { %struct.aiString, i32, i32, i32, i32, ptr }
%struct.aiUVTransform = type { %class.aiVector2t, %class.aiVector2t, float }
%class.aiVector2t = type { float, float }

@.str.7 = private unnamed_addr constant [17 x i8] c"Property is null\00", align 1
@.str.8 = private unnamed_addr constant [13 x i8] c"$tex.uvtrafo\00", align 1

; Function Attrs: mustprogress uwtable
define hidden void @_ZN6Assimp14FlipUVsProcess15ProcessMaterialEP10aiMaterial(ptr noundef nonnull align 8 dereferenceable(24) %0, ptr noundef %1) #1 align 2 {
  %3 = alloca ptr, align 8
  %4 = alloca ptr, align 8
  %5 = alloca ptr, align 8
  %6 = alloca i32, align 4
  %7 = alloca i32, align 4
  %8 = alloca ptr, align 8
  %9 = alloca ptr, align 8
  store ptr %0, ptr %3, align 8
  store ptr %1, ptr %4, align 8
  call void @llvm.lifetime.start.p0(i64 8, ptr %5) #12
  %10 = load ptr, ptr %4, align 8
  store ptr %10, ptr %5, align 8
  call void @llvm.lifetime.start.p0(i64 4, ptr %6) #12
  store i32 0, ptr %6, align 4
  br label %11

11:                                               ; preds = %54, %2
  %12 = load i32, ptr %6, align 4
  %13 = load ptr, ptr %5, align 8
  %14 = getelementptr inbounds nuw %struct.aiMaterial, ptr %13, i32 0, i32 1
  %15 = load i32, ptr %14, align 8
  %16 = icmp ult i32 %12, %15
  br i1 %16, label %18, label %17

17:                                               ; preds = %11
  store i32 2, ptr %7, align 4
  call void @llvm.lifetime.end.p0(i64 4, ptr %6) #12
  br label %57

18:                                               ; preds = %11
  call void @llvm.lifetime.start.p0(i64 8, ptr %8) #12
  %19 = load ptr, ptr %5, align 8
  %20 = getelementptr inbounds nuw %struct.aiMaterial, ptr %19, i32 0, i32 0
  %21 = load ptr, ptr %20, align 8
  %22 = load i32, ptr %6, align 4
  %23 = zext i32 %22 to i64
  %24 = getelementptr inbounds nuw ptr, ptr %21, i64 %23
  %25 = load ptr, ptr %24, align 8
  store ptr %25, ptr %8, align 8
  %26 = load ptr, ptr %8, align 8
  %27 = icmp ne ptr %26, null
  br i1 %27, label %30, label %28

28:                                               ; preds = %18
  %29 = call noundef ptr @_ZN6Assimp13DefaultLogger3getEv()
  call void @_ZN6Assimp6Logger12verboseDebugEPKc(ptr noundef nonnull align 8 dereferenceable(12) %29, ptr noundef @.str.7)
  store i32 4, ptr %7, align 4
  br label %51

30:                                               ; preds = %18
  %31 = load ptr, ptr %8, align 8
  %32 = getelementptr inbounds nuw %struct.aiMaterialProperty, ptr %31, i32 0, i32 0
  %33 = getelementptr inbounds nuw %struct.aiString, ptr %32, i32 0, i32 1
  %34 = getelementptr inbounds [1024 x i8], ptr %33, i64 0, i64 0
  %35 = call i32 @strcmp(ptr noundef %34, ptr noundef @.str.8) #13
  %36 = icmp ne i32 %35, 0
  br i1 %36, label %50, label %37

37:                                               ; preds = %30
  call void @llvm.lifetime.start.p0(i64 8, ptr %9) #12
  %38 = load ptr, ptr %8, align 8
  %39 = getelementptr inbounds nuw %struct.aiMaterialProperty, ptr %38, i32 0, i32 5
  %40 = load ptr, ptr %39, align 8
  store ptr %40, ptr %9, align 8
  %41 = load ptr, ptr %9, align 8
  %42 = getelementptr inbounds nuw %struct.aiUVTransform, ptr %41, i32 0, i32 0
  %43 = getelementptr inbounds nuw %class.aiVector2t, ptr %42, i32 0, i32 1
  %44 = load float, ptr %43, align 4
  %45 = fmul float %44, -1.000000e+00
  store float %45, ptr %43, align 4
  %46 = load ptr, ptr %9, align 8
  %47 = getelementptr inbounds nuw %struct.aiUVTransform, ptr %46, i32 0, i32 2
  %48 = load float, ptr %47, align 4
  %49 = fmul float %48, -1.000000e+00
  store float %49, ptr %47, align 4
  call void @llvm.lifetime.end.p0(i64 8, ptr %9) #12
  br label %50

50:                                               ; preds = %37, %30
  store i32 0, ptr %7, align 4
  br label %51

51:                                               ; preds = %50, %28
  call void @llvm.lifetime.end.p0(i64 8, ptr %8) #12
  %52 = load i32, ptr %7, align 4
  switch i32 %52, label %58 [
    i32 0, label %53
    i32 4, label %54
  ]

53:                                               ; preds = %51
  br label %54

54:                                               ; preds = %53, %51
  %55 = load i32, ptr %6, align 4
  %56 = add i32 %55, 1
  store i32 %56, ptr %6, align 4
  br label %11, !llvm.loop !21

57:                                               ; preds = %17
  call void @llvm.lifetime.end.p0(i64 8, ptr %5) #12
  ret void

58:                                               ; preds = %51
  unreachable
}