; Function Attrs: mustprogress uwtable
define hidden void @_ZN6Assimp14FlipUVsProcess15ProcessMaterialEP10aiMaterial(ptr noundef nonnull readnone align 8 captures(none) dereferenceable(24) %0, ptr noundef readonly captures(none) %1) local_unnamed_addr #5 align 2 {
  %3 = getelementptr inbounds nuw i8, ptr %1, i64 8
  %4 = load i32, ptr %3, align 8
  %.not13 = icmp eq i32 %4, 0
  br i1 %.not13, label %._crit_edge, label %.lr.ph

._crit_edge:                                      ; preds = %22, %2
  ret void

.lr.ph:                                           ; preds = %2, %22
  %indvars.iv = phi i64 [ %indvars.iv.next, %22 ], [ 0, %2 ]
  %5 = load ptr, ptr %1, align 8
  %6 = getelementptr inbounds nuw ptr, ptr %5, i64 %indvars.iv
  %7 = load ptr, ptr %6, align 8
  %.not = icmp eq ptr %7, null
  br i1 %.not, label %8, label %10

8:                                                ; preds = %.lr.ph
  %9 = tail call noundef ptr @_ZN6Assimp13DefaultLogger3getEv()
  tail call void @_ZN6Assimp6Logger12verboseDebugEPKc(ptr noundef nonnull align 8 dereferenceable(12) %9, ptr noundef nonnull @.str.7)
  br label %22

10:                                               ; preds = %.lr.ph
  %11 = getelementptr inbounds nuw i8, ptr %7, i64 4
  %12 = tail call i32 @strcmp(ptr noundef nonnull dereferenceable(1) %11, ptr noundef nonnull dereferenceable(13) @.str.8) #16
  %.not11 = icmp eq i32 %12, 0
  br i1 %.not11, label %13, label %22

13:                                               ; preds = %10
  %14 = getelementptr inbounds nuw i8, ptr %7, i64 1048
  %15 = load ptr, ptr %14, align 8
  %16 = getelementptr inbounds nuw i8, ptr %15, i64 4
  %17 = load float, ptr %16, align 4
  %18 = fneg float %17
  store float %18, ptr %16, align 4
  %19 = getelementptr inbounds nuw i8, ptr %15, i64 16
  %20 = load float, ptr %19, align 4
  %21 = fneg float %20
  store float %21, ptr %19, align 4
  br label %22

22:                                               ; preds = %10, %13, %8
  %indvars.iv.next = add nuw nsw i64 %indvars.iv, 1
  %23 = load i32, ptr %3, align 8
  %24 = zext i32 %23 to i64
  %25 = icmp samesign ult i64 %indvars.iv.next, %24
  br i1 %25, label %.lr.ph, label %._crit_edge, !llvm.loop !24
}